c__builtin__
set
p0
((lp1
S'velociraptor'
p2
aS'moose'
p3
aS'parrot'
p4
aS'cow'
p5
aS'kangaroo'
p6
aS'platypus'
p7
aS'bear'
p8
aS'gorilla'
p9
aS'chicken'
p10
aS'giraffe'
p11
aS'whale'
p12
aS'octopus'
p13
aS'fish'
p14
aS'iguana'
p15
atp16
Rp17
.