(dp0
S'Is your animal a mammal?'
p1
c__builtin__
set
p2
((lp3
S'moose'
p4
aS'cow'
p5
aS'kangaroo'
p6
aS'platypus'
p7
aS'bear'
p8
aS'gorilla'
p9
aS'giraffe'
p10
aS'whale'
p11
atp12
Rp13
sS'Does your animal have a long neck?'
p14
g2
((lp15
g10
atp16
Rp17
sS'Does your animal lay eggs?'
p18
g2
((lp19
S'velociraptor'
p20
aS'parrot'
p21
aS'fish'
p22
ag7
aS'chicken'
p23
aS'iguana'
p24
atp25
Rp26
sS'Is your animal brightly colored?'
p27
g2
((lp28
g21
atp29
Rp30
sS'Does your animal live on a farm?'
p31
g2
((lp32
g5
atp33
Rp34
sS'Does your animal walk on two legs?'
p35
g2
((lp36
S'velociraptor'
p37
ag9
ag6
ag23
ag21
atp38
Rp39
sS'Is your animal extinct?'
p40
g2
((lp41
g37
atp42
Rp43
sS'Is your animal domesticated?'
p44
g2
((lp45
S'cow'
p46
atp47
Rp48
sS'Is your animal a carnivore?'
p49
g2
((lp50
g20
ag8
atp51
Rp52
sS'Is your animal a primate?'
p53
g2
((lp54
g9
atp55
Rp56
sS'Does your animal live in the ocean?'
p57
g2
((lp58
g22
aS'octopus'
p59
ag11
atp60
Rp61
sS'Is your animal a reptile?'
p62
g2
((lp63
g24
atp64
Rp65
s.